; Function Attrs: mustprogress nofree norecurse nosync nounwind willreturn memory(argmem: write) uwtable
define void @_ZN8proxygen2hq11getGreaseIdEm(ptr noalias nocapture writeonly sret(%"class.folly::Optional") align 8 %agg.result, i64 noundef %n) local_unnamed_addr #4 personality ptr @__gxx_personality_v0 {
entry:
  %cmp = icmp ugt i64 %n, 148764065110560899
  br i1 %cmp, label %if.then, label %if.end

if.then:                                          ; preds = %entry
  store i8 0, ptr %agg.result, align 8
  %hasValue.i.i = getelementptr inbounds i8, ptr %agg.result, i64 8
  store i8 0, ptr %hasValue.i.i, align 8
  br label %return

if.end:                                           ; preds = %entry
  %mul = mul nuw nsw i64 %n, 31
  %add = add nuw nsw i64 %mul, 33
  %hasValue.i.i2 = getelementptr inbounds i8, ptr %agg.result, i64 8
  store i64 %add, ptr %agg.result, align 8
  store i8 1, ptr %hasValue.i.i2, align 8
  br label %return

return:                                           ; preds = %if.end, %if.then
  ret void
}